; Function Attrs: mustprogress nofree norecurse nosync nounwind willreturn memory(read, argmem: readwrite, inaccessiblemem: none) uwtable
define void @_ZN6icu_7511NGramParser7addByteEi(ptr nocapture noundef nonnull align 8 dereferenceable(48) %this, i32 noundef %b) local_unnamed_addr #5 align 2 {
entry:
  %ngram = getelementptr inbounds i8, ptr %this, i64 8
  %0 = load i32, ptr %ngram, align 8
  %shl = shl i32 %0, 8
  %add = add nsw i32 %shl, %b
  %and = and i32 %add, 16777215
  store i32 %and, ptr %ngram, align 8
  %ngramCount.i = getelementptr inbounds i8, ptr %this, i64 24
  %1 = load i32, ptr %ngramCount.i, align 8
  %add.i = add nsw i32 %1, 1
  store i32 %add.i, ptr %ngramCount.i, align 8
  %ngramList.i = getelementptr inbounds i8, ptr %this, i64 16
  %2 = load ptr, ptr %ngramList.i, align 8
  %arrayidx.i.i = getelementptr inbounds i8, ptr %2, i64 128
  %3 = load i32, ptr %arrayidx.i.i, align 4
  %cmp.not.i.i = icmp sgt i32 %3, %and
  %spec.select.i.i = select i1 %cmp.not.i.i, i32 0, i32 32
  %add3.i.i = or disjoint i32 %spec.select.i.i, 16
  %idxprom4.i.i = zext nneg i32 %add3.i.i to i64
  %arrayidx5.i.i = getelementptr inbounds i32, ptr %2, i64 %idxprom4.i.i
  %4 = load i32, ptr %arrayidx5.i.i, align 4
  %cmp6.not.i.i = icmp sgt i32 %4, %and
  %index.1.i.i = select i1 %cmp6.not.i.i, i32 %spec.select.i.i, i32 %add3.i.i
  %add10.i.i = or disjoint i32 %index.1.i.i, 8
  %idxprom11.i.i = zext nneg i32 %add10.i.i to i64
  %arrayidx12.i.i = getelementptr inbounds i32, ptr %2, i64 %idxprom11.i.i
  %5 = load i32, ptr %arrayidx12.i.i, align 4
  %cmp13.not.i.i = icmp sgt i32 %5, %and
  %index.2.i.i = select i1 %cmp13.not.i.i, i32 %index.1.i.i, i32 %add10.i.i
  %add17.i.i = or disjoint i32 %index.2.i.i, 4
  %idxprom18.i.i = zext nneg i32 %add17.i.i to i64
  %arrayidx19.i.i = getelementptr inbounds i32, ptr %2, i64 %idxprom18.i.i
  %6 = load i32, ptr %arrayidx19.i.i, align 4
  %cmp20.not.i.i = icmp sgt i32 %6, %and
  %index.3.i.i = select i1 %cmp20.not.i.i, i32 %index.2.i.i, i32 %add17.i.i
  %add24.i.i = add nuw nsw i32 %index.3.i.i, 2
  %idxprom25.i.i = zext nneg i32 %add24.i.i to i64
  %arrayidx26.i.i = getelementptr inbounds i32, ptr %2, i64 %idxprom25.i.i
  %7 = load i32, ptr %arrayidx26.i.i, align 4
  %cmp27.not.i.i = icmp sgt i32 %7, %and
  %index.4.i.i = select i1 %cmp27.not.i.i, i32 %index.3.i.i, i32 %add24.i.i
  %add31.i.i = add nuw nsw i32 %index.4.i.i, 1
  %idxprom32.i.i = zext nneg i32 %add31.i.i to i64
  %arrayidx33.i.i = getelementptr inbounds i32, ptr %2, i64 %idxprom32.i.i
  %8 = load i32, ptr %arrayidx33.i.i, align 4
  %cmp34.not.i.i = icmp sgt i32 %8, %and
  %index.5.i.i = select i1 %cmp34.not.i.i, i32 %index.4.i.i, i32 %add31.i.i
  %idxprom38.i.i = zext nneg i32 %index.5.i.i to i64
  %arrayidx39.i.i = getelementptr inbounds i32, ptr %2, i64 %idxprom38.i.i
  %9 = load i32, ptr %arrayidx39.i.i, align 4
  %cmp40.i.i = icmp sgt i32 %9, %and
  %sub.i.i = sext i1 %cmp40.i.i to i32
  %index.6.i.i = add nsw i32 %index.5.i.i, %sub.i.i
  %cmp43.i.i = icmp slt i32 %index.6.i.i, 0
  br i1 %cmp43.i.i, label %_ZN6icu_7511NGramParser6lookupEi.exit, label %lor.lhs.false.i.i

lor.lhs.false.i.i:                                ; preds = %entry
  %idxprom44.i.i = zext nneg i32 %index.6.i.i to i64
  %arrayidx45.i.i = getelementptr inbounds i32, ptr %2, i64 %idxprom44.i.i
  %10 = load i32, ptr %arrayidx45.i.i, align 4
  %cmp46.not.i.i = icmp eq i32 %10, %and
  br i1 %cmp46.not.i.i, label %if.then.i, label %_ZN6icu_7511NGramParser6lookupEi.exit

if.then.i:                                        ; preds = %lor.lhs.false.i.i
  %hitCount.i = getelementptr inbounds i8, ptr %this, i64 28
  %11 = load i32, ptr %hitCount.i, align 4
  %add2.i = add nsw i32 %11, 1
  store i32 %add2.i, ptr %hitCount.i, align 4
  br label %_ZN6icu_7511NGramParser6lookupEi.exit

_ZN6icu_7511NGramParser6lookupEi.exit:            ; preds = %entry, %lor.lhs.false.i.i, %if.then.i
  ret void
}